target datalayout = "e-m:e-p270:32:32-p271:32:32-p272:64:64-i64:64-i128:128-f80:128-n8:16:32:64-S128"
target triple = "x86_64-pc-linux-gnu"

%struct.pitem_st = type { [8 x i8], ptr, ptr }
%struct.pqueue_st = type { ptr, i32 }

; Function Attrs: nounwind uwtable
define ptr @pqueue_find(ptr noundef %0, ptr noundef %1) #0 {
  %3 = alloca ptr, align 8
  %4 = alloca ptr, align 8
  %5 = alloca ptr, align 8
  %6 = alloca ptr, align 8
  %7 = alloca ptr, align 8
  %8 = alloca i32, align 4
  store ptr %0, ptr %4, align 8, !tbaa !14
  store ptr %1, ptr %5, align 8, !tbaa !3
  call void @llvm.lifetime.start.p0(i64 8, ptr %6) #5
  call void @llvm.lifetime.start.p0(i64 8, ptr %7) #5
  store ptr null, ptr %7, align 8, !tbaa !9
  %9 = load ptr, ptr %4, align 8, !tbaa !14
  %10 = getelementptr inbounds nuw %struct.pqueue_st, ptr %9, i32 0, i32 0
  %11 = load ptr, ptr %10, align 8, !tbaa !16
  %12 = icmp eq ptr %11, null
  br i1 %12, label %13, label %14

13:                                               ; preds = %2
  store ptr null, ptr %3, align 8
  store i32 1, ptr %8, align 4
  br label %52

14:                                               ; preds = %2
  %15 = load ptr, ptr %4, align 8, !tbaa !14
  %16 = getelementptr inbounds nuw %struct.pqueue_st, ptr %15, i32 0, i32 0
  %17 = load ptr, ptr %16, align 8, !tbaa !16
  store ptr %17, ptr %6, align 8, !tbaa !9
  br label %18

18:                                               ; preds = %33, %14
  %19 = load ptr, ptr %6, align 8, !tbaa !9
  %20 = getelementptr inbounds nuw %struct.pitem_st, ptr %19, i32 0, i32 2
  %21 = load ptr, ptr %20, align 8, !tbaa !13
  %22 = icmp ne ptr %21, null
  br i1 %22, label %23, label %37

23:                                               ; preds = %18
  %24 = load ptr, ptr %6, align 8, !tbaa !9
  %25 = getelementptr inbounds nuw %struct.pitem_st, ptr %24, i32 0, i32 0
  %26 = getelementptr inbounds [8 x i8], ptr %25, i64 0, i64 0
  %27 = load ptr, ptr %5, align 8, !tbaa !3
  %28 = call i32 @memcmp(ptr noundef %26, ptr noundef %27, i64 noundef 8) #6
  %29 = icmp eq i32 %28, 0
  br i1 %29, label %30, label %32

30:                                               ; preds = %23
  %31 = load ptr, ptr %6, align 8, !tbaa !9
  store ptr %31, ptr %7, align 8, !tbaa !9
  br label %37

32:                                               ; preds = %23
  br label %33

33:                                               ; preds = %32
  %34 = load ptr, ptr %6, align 8, !tbaa !9
  %35 = getelementptr inbounds nuw %struct.pitem_st, ptr %34, i32 0, i32 2
  %36 = load ptr, ptr %35, align 8, !tbaa !13
  store ptr %36, ptr %6, align 8, !tbaa !9
  br label %18, !llvm.loop !22

37:                                               ; preds = %30, %18
  %38 = load ptr, ptr %6, align 8, !tbaa !9
  %39 = getelementptr inbounds nuw %struct.pitem_st, ptr %38, i32 0, i32 0
  %40 = getelementptr inbounds [8 x i8], ptr %39, i64 0, i64 0
  %41 = load ptr, ptr %5, align 8, !tbaa !3
  %42 = call i32 @memcmp(ptr noundef %40, ptr noundef %41, i64 noundef 8) #6
  %43 = icmp eq i32 %42, 0
  br i1 %43, label %44, label %46

44:                                               ; preds = %37
  %45 = load ptr, ptr %6, align 8, !tbaa !9
  store ptr %45, ptr %7, align 8, !tbaa !9
  br label %46

46:                                               ; preds = %44, %37
  %47 = load ptr, ptr %7, align 8, !tbaa !9
  %48 = icmp ne ptr %47, null
  br i1 %48, label %50, label %49

49:                                               ; preds = %46
  store ptr null, ptr %3, align 8
  store i32 1, ptr %8, align 4
  br label %52

50:                                               ; preds = %46
  %51 = load ptr, ptr %7, align 8, !tbaa !9
  store ptr %51, ptr %3, align 8
  store i32 1, ptr %8, align 4
  br label %52

52:                                               ; preds = %50, %49, %13
  call void @llvm.lifetime.end.p0(i64 8, ptr %7) #5
  call void @llvm.lifetime.end.p0(i64 8, ptr %6) #5
  %53 = load ptr, ptr %3, align 8
  ret ptr %53
}