; Function Attrs: nofree nounwind memory(read, inaccessiblemem: none) uwtable
define ptr @pqueue_find(ptr noundef readonly captures(none) %0, ptr noundef readonly captures(none) %1) local_unnamed_addr #6 {
  %3 = load ptr, ptr %0, align 8, !tbaa !10
  %4 = icmp eq ptr %3, null
  br i1 %4, label %11, label %.preheader

.preheader:                                       ; preds = %2, %7
  %.013 = phi ptr [ %6, %7 ], [ %3, %2 ]
  %5 = getelementptr inbounds nuw i8, ptr %.013, i64 16
  %6 = load ptr, ptr %5, align 8, !tbaa !9
  %.not = icmp eq ptr %6, null
  br i1 %.not, label %9, label %7

7:                                                ; preds = %.preheader
  %bcmp = tail call i32 @bcmp(ptr noundef nonnull dereferenceable(8) %.013, ptr noundef nonnull dereferenceable(8) %1, i64 8)
  %8 = icmp eq i32 %bcmp, 0
  br i1 %8, label %9, label %.preheader, !llvm.loop !15

9:                                                ; preds = %7, %.preheader
  %.0 = phi ptr [ null, %.preheader ], [ %.013, %7 ]
  %bcmp17 = tail call i32 @bcmp(ptr noundef nonnull dereferenceable(8) %.013, ptr noundef nonnull dereferenceable(8) %1, i64 8)
  %10 = icmp eq i32 %bcmp17, 0
  %spec.select = select i1 %10, ptr %.013, ptr %.0
  br label %11

11:                                               ; preds = %9, %2
  %.014 = phi ptr [ null, %2 ], [ %spec.select, %9 ]
  ret ptr %.014
}